; Function Attrs: mustprogress nofree norecurse nosync nounwind willreturn memory(argmem: read) uwtable
define range(i32 -173, 2) i32 @wolfSSL_is_server(ptr noundef readonly captures(address_is_null) %0) local_unnamed_addr #9 {
  %2 = icmp eq ptr %0, null
  br i1 %2, label %9, label %3

3:                                                ; preds = %1
  %4 = getelementptr inbounds nuw i8, ptr %0, i64 1024
  %5 = load i64, ptr %4, align 8
  %6 = and i64 %5, 48
  %7 = icmp eq i64 %6, 0
  %8 = zext i1 %7 to i32
  br label %9

9:                                                ; preds = %1, %3
  %.0 = phi i32 [ %8, %3 ], [ -173, %1 ]
  ret i32 %.0
}